target datalayout = "e-m:e-p270:32:32-p271:32:32-p272:64:64-i64:64-i128:128-f80:128-n8:16:32:64-S128"
target triple = "x86_64-pc-linux-gnu"

%struct.PauliHamil = type { ptr, ptr, i32, i32 }

; Function Attrs: nounwind uwtable
define void @QuESTAssert(i32 noundef %0, i32 noundef %1, ptr noundef %2) #0 {
  %4 = alloca i32, align 4
  %5 = alloca i32, align 4
  %6 = alloca ptr, align 8
  store i32 %0, ptr %4, align 4, !tbaa !9
  store i32 %1, ptr %5, align 4, !tbaa !9
  store ptr %2, ptr %6, align 8, !tbaa !4
  %7 = load i32, ptr %4, align 4, !tbaa !9
  %8 = icmp ne i32 %7, 0
  br i1 %8, label %15, label %9

9:                                                ; preds = %3
  %10 = load i32, ptr %5, align 4, !tbaa !9
  %11 = zext i32 %10 to i64
  %12 = getelementptr inbounds nuw [92 x ptr], ptr @errorMessages, i64 0, i64 %11
  %13 = load ptr, ptr %12, align 8, !tbaa !4
  %14 = load ptr, ptr %6, align 8, !tbaa !4
  call void @invalidQuESTInputError(ptr noundef %13, ptr noundef %14)
  br label %15

15:                                               ; preds = %9, %3
  ret void
}

; Function Attrs: nounwind uwtable
define i32 @calcLog2(i64 noundef %0) #0 {
  %2 = alloca i64, align 8
  %3 = alloca i32, align 4
  store i64 %0, ptr %2, align 8, !tbaa !34
  call void @llvm.lifetime.start.p0(i64 4, ptr %3) #7
  store i32 0, ptr %3, align 4, !tbaa !9
  br label %4

4:                                                ; preds = %8, %1
  %5 = load i64, ptr %2, align 8, !tbaa !34
  %6 = lshr i64 %5, 1
  store i64 %6, ptr %2, align 8, !tbaa !34
  %7 = icmp ne i64 %6, 0
  br i1 %7, label %8, label %11

8:                                                ; preds = %4
  %9 = load i32, ptr %3, align 4, !tbaa !9
  %10 = add i32 %9, 1
  store i32 %10, ptr %3, align 4, !tbaa !9
  br label %4

11:                                               ; preds = %4
  %12 = load i32, ptr %3, align 4, !tbaa !9
  call void @llvm.lifetime.end.p0(i64 4, ptr %3) #7
  ret i32 %12
}

; Function Attrs: nounwind uwtable
define void @validateDiagPauliHamilFromFile(ptr noundef byval(%struct.PauliHamil) align 8 %0, i32 noundef %1, ptr noundef %2) #0 {
  %4 = alloca i32, align 4
  %5 = alloca ptr, align 8
  %6 = alloca i32, align 4
  %7 = alloca i32, align 4
  %8 = alloca i64, align 8
  %9 = alloca i32, align 4
  store i32 %1, ptr %4, align 4, !tbaa !9
  store ptr %2, ptr %5, align 8, !tbaa !4
  call void @llvm.lifetime.start.p0(i64 4, ptr %6) #7
  call void @llvm.lifetime.start.p0(i64 4, ptr %7) #7
  %10 = call i32 @calcLog2(i64 noundef -1)
  store i32 %10, ptr %7, align 4, !tbaa !9
  %11 = getelementptr inbounds nuw %struct.PauliHamil, ptr %0, i32 0, i32 3
  %12 = load i32, ptr %11, align 4, !tbaa !49
  %13 = load i32, ptr %7, align 4, !tbaa !9
  %14 = icmp ule i32 %12, %13
  %15 = zext i1 %14 to i32
  store i32 %15, ptr %6, align 4, !tbaa !9
  %16 = load i32, ptr %6, align 4, !tbaa !9
  %17 = icmp ne i32 %16, 0
  br i1 %17, label %19, label %18

18:                                               ; preds = %3
  call void @destroyPauliHamil(ptr noundef byval(%struct.PauliHamil) align 8 %0)
  br label %19

19:                                               ; preds = %18, %3
  %20 = load i32, ptr %6, align 4, !tbaa !9
  %21 = load ptr, ptr %5, align 8, !tbaa !4
  call void @QuESTAssert(i32 noundef %20, i32 noundef 56, ptr noundef %21)
  call void @llvm.lifetime.start.p0(i64 8, ptr %8) #7
  %22 = getelementptr inbounds nuw %struct.PauliHamil, ptr %0, i32 0, i32 3
  %23 = load i32, ptr %22, align 4, !tbaa !49
  %24 = zext i32 %23 to i64
  %25 = shl i64 1, %24
  store i64 %25, ptr %8, align 8, !tbaa !34
  %26 = load i64, ptr %8, align 8, !tbaa !34
  %27 = load i32, ptr %4, align 4, !tbaa !9
  %28 = sext i32 %27 to i64
  %29 = icmp uge i64 %26, %28
  %30 = zext i1 %29 to i32
  store i32 %30, ptr %6, align 4, !tbaa !9
  %31 = load i32, ptr %6, align 4, !tbaa !9
  %32 = icmp ne i32 %31, 0
  br i1 %32, label %34, label %33

33:                                               ; preds = %19
  call void @destroyPauliHamil(ptr noundef byval(%struct.PauliHamil) align 8 %0)
  br label %34

34:                                               ; preds = %33, %19
  %35 = load i32, ptr %6, align 4, !tbaa !9
  %36 = load ptr, ptr %5, align 8, !tbaa !4
  call void @QuESTAssert(i32 noundef %35, i32 noundef 55, ptr noundef %36)
  call void @llvm.lifetime.start.p0(i64 4, ptr %9) #7
  store i32 0, ptr %9, align 4, !tbaa !9
  br label %37

37:                                               ; preds = %71, %34
  %38 = load i32, ptr %9, align 4, !tbaa !9
  %39 = getelementptr inbounds nuw %struct.PauliHamil, ptr %0, i32 0, i32 2
  %40 = load i32, ptr %39, align 8, !tbaa !51
  %41 = getelementptr inbounds nuw %struct.PauliHamil, ptr %0, i32 0, i32 3
  %42 = load i32, ptr %41, align 4, !tbaa !49
  %43 = mul nsw i32 %40, %42
  %44 = icmp slt i32 %38, %43
  br i1 %44, label %46, label %45

45:                                               ; preds = %37
  call void @llvm.lifetime.end.p0(i64 4, ptr %9) #7
  br label %74

46:                                               ; preds = %37
  %47 = getelementptr inbounds nuw %struct.PauliHamil, ptr %0, i32 0, i32 0
  %48 = load ptr, ptr %47, align 8, !tbaa !52
  %49 = load i32, ptr %9, align 4, !tbaa !9
  %50 = sext i32 %49 to i64
  %51 = getelementptr inbounds i32, ptr %48, i64 %50
  %52 = load i32, ptr %51, align 4, !tbaa !9
  %53 = icmp eq i32 %52, 0
  br i1 %53, label %62, label %54

54:                                               ; preds = %46
  %55 = getelementptr inbounds nuw %struct.PauliHamil, ptr %0, i32 0, i32 0
  %56 = load ptr, ptr %55, align 8, !tbaa !52
  %57 = load i32, ptr %9, align 4, !tbaa !9
  %58 = sext i32 %57 to i64
  %59 = getelementptr inbounds i32, ptr %56, i64 %58
  %60 = load i32, ptr %59, align 4, !tbaa !9
  %61 = icmp eq i32 %60, 3
  br label %62

62:                                               ; preds = %54, %46
  %63 = phi i1 [ true, %46 ], [ %61, %54 ]
  %64 = zext i1 %63 to i32
  store i32 %64, ptr %6, align 4, !tbaa !9
  %65 = load i32, ptr %6, align 4, !tbaa !9
  %66 = icmp ne i32 %65, 0
  br i1 %66, label %68, label %67

67:                                               ; preds = %62
  call void @destroyPauliHamil(ptr noundef byval(%struct.PauliHamil) align 8 %0)
  br label %68

68:                                               ; preds = %67, %62
  %69 = load i32, ptr %6, align 4, !tbaa !9
  %70 = load ptr, ptr %5, align 8, !tbaa !4
  call void @QuESTAssert(i32 noundef %69, i32 noundef 68, ptr noundef %70)
  br label %71

71:                                               ; preds = %68
  %72 = load i32, ptr %9, align 4, !tbaa !9
  %73 = add nsw i32 %72, 1
  store i32 %73, ptr %9, align 4, !tbaa !9
  br label %37

74:                                               ; preds = %45
  call void @llvm.lifetime.end.p0(i64 8, ptr %8) #7
  call void @llvm.lifetime.end.p0(i64 4, ptr %7) #7
  call void @llvm.lifetime.end.p0(i64 4, ptr %6) #7
  ret void
}