; Function Attrs: nounwind uwtable
define void @validateDiagPauliHamilFromFile(ptr noundef readonly byval(%struct.PauliHamil) align 8 captures(none) %0, i32 noundef %1, ptr noundef %2) local_unnamed_addr #3 {
  %4 = getelementptr inbounds nuw i8, ptr %0, i64 20
  %5 = load i32, ptr %4, align 4, !tbaa !33
  %6 = icmp ult i32 %5, 64
  br i1 %6, label %QuESTAssert.exit, label %7

7:                                                ; preds = %3
  tail call void @destroyPauliHamil(ptr noundef nonnull byval(%struct.PauliHamil) align 8 %0) #14
  tail call void @invalidQuESTInputError(ptr noundef nonnull @.str.58, ptr noundef %2)
  br label %QuESTAssert.exit

QuESTAssert.exit:                                 ; preds = %3, %7
  %8 = zext nneg i32 %5 to i64
  %9 = shl nuw i64 1, %8
  %10 = sext i32 %1 to i64
  %.not = icmp ult i64 %9, %10
  br i1 %.not, label %11, label %QuESTAssert.exit17

11:                                               ; preds = %QuESTAssert.exit
  tail call void @destroyPauliHamil(ptr noundef nonnull byval(%struct.PauliHamil) align 8 %0) #14
  tail call void @invalidQuESTInputError(ptr noundef nonnull @.str.57, ptr noundef %2)
  br label %QuESTAssert.exit17

QuESTAssert.exit17:                               ; preds = %QuESTAssert.exit, %11
  %12 = getelementptr inbounds nuw i8, ptr %0, i64 16
  %13 = load i32, ptr %12, align 8, !tbaa !35
  %14 = mul nsw i32 %13, %5
  %15 = icmp sgt i32 %14, 0
  br i1 %15, label %.lr.ph, label %._crit_edge

.lr.ph:                                           ; preds = %QuESTAssert.exit17
  %16 = load ptr, ptr %0, align 8, !tbaa !36
  %wide.trip.count = zext nneg i32 %14 to i64
  br label %17

._crit_edge:                                      ; preds = %QuESTAssert.exit19, %QuESTAssert.exit17
  ret void

17:                                               ; preds = %.lr.ph, %QuESTAssert.exit19
  %indvars.iv = phi i64 [ 0, %.lr.ph ], [ %indvars.iv.next, %QuESTAssert.exit19 ]
  %18 = getelementptr inbounds nuw i32, ptr %16, i64 %indvars.iv
  %19 = load i32, ptr %18, align 4, !tbaa !20
  switch i32 %19, label %20 [
    i32 3, label %QuESTAssert.exit19
    i32 0, label %QuESTAssert.exit19
  ]

20:                                               ; preds = %17
  tail call void @destroyPauliHamil(ptr noundef nonnull byval(%struct.PauliHamil) align 8 %0) #14
  tail call void @invalidQuESTInputError(ptr noundef nonnull @.str.70, ptr noundef %2)
  br label %QuESTAssert.exit19

QuESTAssert.exit19:                               ; preds = %17, %17, %20
  %indvars.iv.next = add nuw nsw i64 %indvars.iv, 1
  %exitcond.not = icmp eq i64 %indvars.iv.next, %wide.trip.count
  br i1 %exitcond.not, label %._crit_edge, label %17
}